; Function Attrs: nounwind uwtable
define dso_local void @FreeQueryDesc(ptr noundef %0) local_unnamed_addr #0 {
  %2 = getelementptr inbounds nuw i8, ptr %0, i64 24
  %3 = load ptr, ptr %2, align 8
  tail call void @UnregisterSnapshot(ptr noundef %3) #11
  %4 = getelementptr inbounds nuw i8, ptr %0, i64 32
  %5 = load ptr, ptr %4, align 8
  tail call void @UnregisterSnapshot(ptr noundef %5) #11
  tail call void @pfree(ptr noundef %0) #11
  ret void
}